; Function Attrs: mustprogress nounwind uwtable
define internal void @_ZN12_GLOBAL__N_114DivZeroCheckerD0Ev(ptr noundef nonnull align 8 dereferenceable(240) %0) unnamed_addr #0 align 2 {
  store ptr getelementptr inbounds inrange(-16, 32) (i8, ptr @_ZTVN12_GLOBAL__N_114DivZeroCheckerE, i64 16), ptr %0, align 8
  %2 = getelementptr inbounds nuw i8, ptr %0, i64 136
  store ptr getelementptr inbounds inrange(-16, 24) (i8, ptr @_ZTVN5clang4ento7BugTypeE, i64 16), ptr %2, align 8
  %3 = getelementptr inbounds i8, ptr %0, i64 192
  tail call void @_ZNSt7__cxx1112basic_stringIcSt11char_traitsIcESaIcEED1Ev(ptr noundef nonnull align 8 dereferenceable(32) %3) #15
  %4 = getelementptr inbounds i8, ptr %0, i64 160
  tail call void @_ZNSt7__cxx1112basic_stringIcSt11char_traitsIcESaIcEED1Ev(ptr noundef nonnull align 8 dereferenceable(32) %4) #15
  %5 = getelementptr inbounds nuw i8, ptr %0, i64 32
  store ptr getelementptr inbounds inrange(-16, 24) (i8, ptr @_ZTVN5clang4ento7BugTypeE, i64 16), ptr %5, align 8
  %6 = getelementptr inbounds i8, ptr %0, i64 88
  tail call void @_ZNSt7__cxx1112basic_stringIcSt11char_traitsIcESaIcEED1Ev(ptr noundef nonnull align 8 dereferenceable(32) %6) #15
  %7 = getelementptr inbounds i8, ptr %0, i64 56
  tail call void @_ZNSt7__cxx1112basic_stringIcSt11char_traitsIcESaIcEED1Ev(ptr noundef nonnull align 8 dereferenceable(32) %7) #15
  tail call void @_ZN5clang15ProgramPointTagD2Ev(ptr noundef nonnull align 8 dereferenceable(16) %0) #15
  tail call void @_ZdlPvm(ptr noundef nonnull %0, i64 noundef 240) #17
  ret void
}